target datalayout = "e-m:e-p270:32:32-p271:32:32-p272:64:64-i64:64-i128:128-f80:128-n8:16:32:64-S128"
target triple = "x86_64-pc-linux-gnu"

%struct.timespec = type { i64, i64 }
%struct._ir_perf_jitdump_record = type { i32, i32, i64 }
%struct._ir_perf_jitdump_load_record = type { %struct._ir_perf_jitdump_record, i32, i32, i64, i64, i64, i64 }

@jitdump_fd = internal global i32 -1, align 4
@ir_perf_jitdump_register.id = internal global i64 1, align 8

; Function Attrs: nounwind uwtable
define internal i64 @ir_perf_timestamp() #0 {
  %1 = alloca i64, align 8
  %2 = alloca %struct.timespec, align 8
  %3 = call i32 @clock_gettime(i32 noundef 1, ptr noundef %2) #5
  %4 = icmp ne i32 %3, 0
  br i1 %4, label %5, label %6

5:                                                ; preds = %0
  store i64 0, ptr %1, align 8
  br label %13

6:                                                ; preds = %0
  %7 = getelementptr inbounds %struct.timespec, ptr %2, i32 0, i32 0
  %8 = load i64, ptr %7, align 8
  %9 = mul i64 %8, 1000000000
  %10 = getelementptr inbounds %struct.timespec, ptr %2, i32 0, i32 1
  %11 = load i64, ptr %10, align 8
  %12 = add i64 %9, %11
  store i64 %12, ptr %1, align 8
  br label %13

13:                                               ; preds = %6, %5
  %14 = load i64, ptr %1, align 8
  ret i64 %14
}

; Function Attrs: nounwind uwtable
define hidden i32 @ir_perf_jitdump_register(ptr noundef %0, ptr noundef %1, i64 noundef %2) #0 {
  %4 = alloca i32, align 4
  %5 = alloca ptr, align 8
  %6 = alloca ptr, align 8
  %7 = alloca i64, align 8
  %8 = alloca %struct._ir_perf_jitdump_load_record, align 8
  %9 = alloca i64, align 8
  %10 = alloca i32, align 4
  store ptr %0, ptr %5, align 8
  store ptr %1, ptr %6, align 8
  store i64 %2, ptr %7, align 8
  %11 = load i32, ptr @jitdump_fd, align 4
  %12 = icmp sge i32 %11, 0
  br i1 %12, label %13, label %64

13:                                               ; preds = %3
  %14 = load ptr, ptr %5, align 8
  %15 = call i64 @strlen(ptr noundef %14) #6
  store i64 %15, ptr %9, align 8
  store i32 0, ptr %10, align 4
  %16 = call i64 (i64, ...) @syscall(i64 noundef 186) #5
  %17 = trunc i64 %16 to i32
  store i32 %17, ptr %10, align 4
  call void @llvm.memset.p0.i64(ptr align 8 %8, i8 0, i64 56, i1 false)
  %18 = getelementptr inbounds %struct._ir_perf_jitdump_load_record, ptr %8, i32 0, i32 0
  %19 = getelementptr inbounds %struct._ir_perf_jitdump_record, ptr %18, i32 0, i32 0
  store i32 0, ptr %19, align 8
  %20 = load i64, ptr %9, align 8
  %21 = add i64 56, %20
  %22 = add i64 %21, 1
  %23 = load i64, ptr %7, align 8
  %24 = add i64 %22, %23
  %25 = trunc i64 %24 to i32
  %26 = getelementptr inbounds %struct._ir_perf_jitdump_load_record, ptr %8, i32 0, i32 0
  %27 = getelementptr inbounds %struct._ir_perf_jitdump_record, ptr %26, i32 0, i32 1
  store i32 %25, ptr %27, align 4
  %28 = call i64 @ir_perf_timestamp()
  %29 = getelementptr inbounds %struct._ir_perf_jitdump_load_record, ptr %8, i32 0, i32 0
  %30 = getelementptr inbounds %struct._ir_perf_jitdump_record, ptr %29, i32 0, i32 2
  store i64 %28, ptr %30, align 8
  %31 = call i32 @getpid() #5
  %32 = getelementptr inbounds %struct._ir_perf_jitdump_load_record, ptr %8, i32 0, i32 1
  store i32 %31, ptr %32, align 8
  %33 = load i32, ptr %10, align 4
  %34 = getelementptr inbounds %struct._ir_perf_jitdump_load_record, ptr %8, i32 0, i32 2
  store i32 %33, ptr %34, align 4
  %35 = load ptr, ptr %6, align 8
  %36 = ptrtoint ptr %35 to i64
  %37 = getelementptr inbounds %struct._ir_perf_jitdump_load_record, ptr %8, i32 0, i32 3
  store i64 %36, ptr %37, align 8
  %38 = load ptr, ptr %6, align 8
  %39 = ptrtoint ptr %38 to i64
  %40 = getelementptr inbounds %struct._ir_perf_jitdump_load_record, ptr %8, i32 0, i32 4
  store i64 %39, ptr %40, align 8
  %41 = load i64, ptr %7, align 8
  %42 = getelementptr inbounds %struct._ir_perf_jitdump_load_record, ptr %8, i32 0, i32 5
  store i64 %41, ptr %42, align 8
  %43 = load i64, ptr @ir_perf_jitdump_register.id, align 8
  %44 = add i64 %43, 1
  store i64 %44, ptr @ir_perf_jitdump_register.id, align 8
  %45 = getelementptr inbounds %struct._ir_perf_jitdump_load_record, ptr %8, i32 0, i32 6
  store i64 %43, ptr %45, align 8
  %46 = load i32, ptr @jitdump_fd, align 4
  %47 = call i64 @write(i32 noundef %46, ptr noundef %8, i64 noundef 56)
  %48 = icmp ne i64 %47, 56
  br i1 %48, label %62, label %49

49:                                               ; preds = %13
  %50 = load i32, ptr @jitdump_fd, align 4
  %51 = load ptr, ptr %5, align 8
  %52 = load i64, ptr %9, align 8
  %53 = add i64 %52, 1
  %54 = call i64 @write(i32 noundef %50, ptr noundef %51, i64 noundef %53)
  %55 = icmp slt i64 %54, 0
  br i1 %55, label %62, label %56

56:                                               ; preds = %49
  %57 = load i32, ptr @jitdump_fd, align 4
  %58 = load ptr, ptr %6, align 8
  %59 = load i64, ptr %7, align 8
  %60 = call i64 @write(i32 noundef %57, ptr noundef %58, i64 noundef %59)
  %61 = icmp slt i64 %60, 0
  br i1 %61, label %62, label %63

62:                                               ; preds = %56, %49, %13
  store i32 0, ptr %4, align 4
  br label %65

63:                                               ; preds = %56
  br label %64

64:                                               ; preds = %63, %3
  store i32 1, ptr %4, align 4
  br label %65

65:                                               ; preds = %64, %62
  %66 = load i32, ptr %4, align 4
  ret i32 %66
}