; Function Attrs: nounwind uwtable
define hidden noundef i32 @ir_perf_jitdump_register(ptr nocapture noundef readonly %0, ptr noundef %1, i64 noundef %2) local_unnamed_addr #0 {
  %4 = alloca %struct.timespec, align 8
  %5 = alloca %struct._ir_perf_jitdump_load_record, align 8
  %6 = load i32, ptr @jitdump_fd, align 4
  %7 = icmp sgt i32 %6, -1
  br i1 %7, label %8, label %45

8:                                                ; preds = %3
  %9 = tail call i64 @strlen(ptr noundef nonnull dereferenceable(1) %0) #8
  %10 = tail call i64 (i64, ...) @syscall(i64 noundef 186) #7
  %11 = trunc i64 %10 to i32
  %12 = add i64 %2, 57
  %13 = add i64 %12, %9
  %14 = trunc i64 %13 to i32
  %15 = getelementptr inbounds i8, ptr %5, i64 4
  store i64 0, ptr %5, align 8
  store i32 %14, ptr %15, align 4
  call void @llvm.lifetime.start.p0(i64 16, ptr nonnull %4)
  %16 = call i32 @clock_gettime(i32 noundef 1, ptr noundef nonnull %4) #7
  %.not.i = icmp eq i32 %16, 0
  br i1 %.not.i, label %17, label %ir_perf_timestamp.exit

17:                                               ; preds = %8
  %18 = load i64, ptr %4, align 8
  %19 = mul i64 %18, 1000000000
  %20 = getelementptr inbounds i8, ptr %4, i64 8
  %21 = load i64, ptr %20, align 8
  %22 = add i64 %19, %21
  br label %ir_perf_timestamp.exit

ir_perf_timestamp.exit:                           ; preds = %8, %17
  %.0.i = phi i64 [ %22, %17 ], [ 0, %8 ]
  call void @llvm.lifetime.end.p0(i64 16, ptr nonnull %4)
  %23 = getelementptr inbounds i8, ptr %5, i64 8
  store i64 %.0.i, ptr %23, align 8
  %24 = call i32 @getpid() #7
  %25 = getelementptr inbounds i8, ptr %5, i64 16
  store i32 %24, ptr %25, align 8
  %26 = getelementptr inbounds i8, ptr %5, i64 20
  store i32 %11, ptr %26, align 4
  %27 = ptrtoint ptr %1 to i64
  %28 = getelementptr inbounds i8, ptr %5, i64 24
  store i64 %27, ptr %28, align 8
  %29 = getelementptr inbounds i8, ptr %5, i64 32
  store i64 %27, ptr %29, align 8
  %30 = getelementptr inbounds i8, ptr %5, i64 40
  store i64 %2, ptr %30, align 8
  %31 = load i64, ptr @ir_perf_jitdump_register.id, align 8
  %32 = add i64 %31, 1
  store i64 %32, ptr @ir_perf_jitdump_register.id, align 8
  %33 = getelementptr inbounds i8, ptr %5, i64 48
  store i64 %31, ptr %33, align 8
  %34 = load i32, ptr @jitdump_fd, align 4
  %35 = call i64 @write(i32 noundef %34, ptr noundef nonnull %5, i64 noundef 56) #7
  %.not = icmp eq i64 %35, 56
  br i1 %.not, label %36, label %46

36:                                               ; preds = %ir_perf_timestamp.exit
  %37 = load i32, ptr @jitdump_fd, align 4
  %38 = add i64 %9, 1
  %39 = call i64 @write(i32 noundef %37, ptr noundef %0, i64 noundef %38) #7
  %40 = icmp slt i64 %39, 0
  br i1 %40, label %46, label %41

41:                                               ; preds = %36
  %42 = load i32, ptr @jitdump_fd, align 4
  %43 = call i64 @write(i32 noundef %42, ptr noundef %1, i64 noundef %2) #7
  %44 = icmp slt i64 %43, 0
  br i1 %44, label %46, label %45

45:                                               ; preds = %41, %3
  br label %46

46:                                               ; preds = %ir_perf_timestamp.exit, %36, %41, %45
  %.0 = phi i32 [ 1, %45 ], [ 0, %41 ], [ 0, %36 ], [ 0, %ir_perf_timestamp.exit ]
  ret i32 %.0
}